target datalayout = "e-m:e-p270:32:32-p271:32:32-p272:64:64-i64:64-i128:128-f80:128-n8:16:32:64-S128"
target triple = "x86_64-pc-linux-gnu"

%"class.std::unique_ptr" = type { %"struct.std::__uniq_ptr_data" }
%"struct.std::__uniq_ptr_data" = type { %"class.std::__uniq_ptr_impl" }
%"class.std::__uniq_ptr_impl" = type { %"class.std::tuple" }
%"class.std::tuple" = type { %"struct.std::_Tuple_impl" }
%"struct.std::_Tuple_impl" = type { %"struct.std::_Head_base.1" }
%"struct.std::_Head_base.1" = type { ptr }
%struct.siginfo_t = type { i32, i32, i32, i32, %union.anon }
%union.anon = type { %struct.anon.12, [80 x i8] }
%struct.anon.12 = type { i32, i32, i32, i64, i64 }
%struct.anon.13 = type { ptr, i16, %union.anon.14 }
%union.anon.14 = type { %struct.anon.15 }
%struct.anon.15 = type { ptr, ptr }

@_ZN4cvc54main9pExecutorE = external global %"class.std::unique_ptr", align 8
@_ZN4cvc54main15signal_handlers9stackSizeE = hidden global i64 0, align 8
@_ZN4cvc54main15signal_handlers9stackBaseE = hidden global ptr null, align 8
@.str.3 = private unnamed_addr constant [27 x i8] c"cvc5 suffered a segfault.\0A\00", align 1
@.str.4 = private unnamed_addr constant [22 x i8] c"Offending address is \00", align 1
@.str.5 = private unnamed_addr constant [2 x i8] c"\0A\00", align 1
@.str.6 = private unnamed_addr constant [50 x i8] c"Looks like this is likely due to stack overflow.\0A\00", align 1
@.str.7 = private unnamed_addr constant [73 x i8] c"You might consider increasing the limit with `ulimit -s' or equivalent.\0A\00", align 1
@.str.8 = private unnamed_addr constant [45 x i8] c"Looks like a NULL pointer was dereferenced.\0A\00", align 1

; Function Attrs: mustprogress nounwind uwtable
define linkonce_odr hidden noundef nonnull align 8 dereferenceable(8) ptr @_ZNSt10_Head_baseILm0EPN4cvc54main15CommandExecutorELb0EE7_M_headERKS4_(ptr noundef nonnull align 8 dereferenceable(8) %0) #2 comdat align 2 {
  %2 = alloca ptr, align 8
  store ptr %0, ptr %2, align 8, !tbaa !65
  %3 = load ptr, ptr %2, align 8, !tbaa !65
  %4 = getelementptr inbounds nuw %"struct.std::_Head_base.1", ptr %3, i32 0, i32 0
  ret ptr %4
}

; Function Attrs: mustprogress nounwind uwtable
define linkonce_odr hidden noundef nonnull align 8 dereferenceable(8) ptr @_ZNSt11_Tuple_implILm0EJPN4cvc54main15CommandExecutorESt14default_deleteIS2_EEE7_M_headERKS6_(ptr noundef nonnull align 8 dereferenceable(8) %0) #2 comdat align 2 {
  %2 = alloca ptr, align 8
  store ptr %0, ptr %2, align 8, !tbaa !63
  %3 = load ptr, ptr %2, align 8, !tbaa !63
  %4 = call noundef nonnull align 8 dereferenceable(8) ptr @_ZNSt10_Head_baseILm0EPN4cvc54main15CommandExecutorELb0EE7_M_headERKS4_(ptr noundef nonnull align 8 dereferenceable(8) %3) #16
  ret ptr %4
}

; Function Attrs: mustprogress nounwind uwtable
define linkonce_odr hidden noundef nonnull align 8 dereferenceable(8) ptr @_ZSt12__get_helperILm0EPN4cvc54main15CommandExecutorEJSt14default_deleteIS2_EEERKT0_RKSt11_Tuple_implIXT_EJS6_DpT1_EE(ptr noundef nonnull align 8 dereferenceable(8) %0) #2 comdat {
  %2 = alloca ptr, align 8
  store ptr %0, ptr %2, align 8, !tbaa !63
  %3 = load ptr, ptr %2, align 8, !tbaa !63
  %4 = call noundef nonnull align 8 dereferenceable(8) ptr @_ZNSt11_Tuple_implILm0EJPN4cvc54main15CommandExecutorESt14default_deleteIS2_EEE7_M_headERKS6_(ptr noundef nonnull align 8 dereferenceable(8) %3) #16
  ret ptr %4
}

; Function Attrs: mustprogress nounwind uwtable
define linkonce_odr hidden noundef nonnull align 8 dereferenceable(8) ptr @_ZSt3getILm0EJPN4cvc54main15CommandExecutorESt14default_deleteIS2_EEERKNSt13tuple_elementIXT_ESt5tupleIJDpT0_EEE4typeERKSA_(ptr noundef nonnull align 8 dereferenceable(8) %0) #2 comdat {
  %2 = alloca ptr, align 8
  store ptr %0, ptr %2, align 8, !tbaa !61
  %3 = load ptr, ptr %2, align 8, !tbaa !61
  %4 = call noundef nonnull align 8 dereferenceable(8) ptr @_ZSt12__get_helperILm0EPN4cvc54main15CommandExecutorEJSt14default_deleteIS2_EEERKT0_RKSt11_Tuple_implIXT_EJS6_DpT1_EE(ptr noundef nonnull align 8 dereferenceable(8) %3) #16
  ret ptr %4
}

; Function Attrs: mustprogress nounwind uwtable
define linkonce_odr hidden noundef ptr @_ZNKSt15__uniq_ptr_implIN4cvc54main15CommandExecutorESt14default_deleteIS2_EE6_M_ptrEv(ptr noundef nonnull align 8 dereferenceable(8) %0) #2 comdat align 2 {
  %2 = alloca ptr, align 8
  store ptr %0, ptr %2, align 8, !tbaa !57
  %3 = load ptr, ptr %2, align 8
  %4 = getelementptr inbounds nuw %"class.std::__uniq_ptr_impl", ptr %3, i32 0, i32 0
  %5 = call noundef nonnull align 8 dereferenceable(8) ptr @_ZSt3getILm0EJPN4cvc54main15CommandExecutorESt14default_deleteIS2_EEERKNSt13tuple_elementIXT_ESt5tupleIJDpT0_EEE4typeERKSA_(ptr noundef nonnull align 8 dereferenceable(8) %4) #16
  %6 = load ptr, ptr %5, align 8, !tbaa !59
  ret ptr %6
}

; Function Attrs: mustprogress nounwind uwtable
define linkonce_odr hidden noundef ptr @_ZNKSt10unique_ptrIN4cvc54main15CommandExecutorESt14default_deleteIS2_EE3getEv(ptr noundef nonnull align 8 dereferenceable(8) %0) #2 comdat align 2 {
  %2 = alloca ptr, align 8
  store ptr %0, ptr %2, align 8, !tbaa !3
  %3 = load ptr, ptr %2, align 8
  %4 = getelementptr inbounds nuw %"class.std::unique_ptr", ptr %3, i32 0, i32 0
  %5 = call noundef ptr @_ZNKSt15__uniq_ptr_implIN4cvc54main15CommandExecutorESt14default_deleteIS2_EE6_M_ptrEv(ptr noundef nonnull align 8 dereferenceable(8) %4) #16
  ret ptr %5
}

; Function Attrs: mustprogress nounwind uwtable
define linkonce_odr hidden noundef zeroext i1 @_ZNKSt10unique_ptrIN4cvc54main15CommandExecutorESt14default_deleteIS2_EEcvbEv(ptr noundef nonnull align 8 dereferenceable(8) %0) #2 comdat align 2 {
  %2 = alloca ptr, align 8
  store ptr %0, ptr %2, align 8, !tbaa !3
  %3 = load ptr, ptr %2, align 8
  %4 = call noundef ptr @_ZNKSt10unique_ptrIN4cvc54main15CommandExecutorESt14default_deleteIS2_EE3getEv(ptr noundef nonnull align 8 dereferenceable(8) %3) #16
  %5 = icmp eq ptr %4, null
  %6 = select i1 %5, i1 false, i1 true
  ret i1 %6
}

; Function Attrs: mustprogress nounwind uwtable
define linkonce_odr hidden noundef ptr @_ZNKSt10unique_ptrIN4cvc54main15CommandExecutorESt14default_deleteIS2_EEptEv(ptr noundef nonnull align 8 dereferenceable(8) %0) #2 comdat align 2 {
  %2 = alloca ptr, align 8
  store ptr %0, ptr %2, align 8, !tbaa !3
  %3 = load ptr, ptr %2, align 8
  %4 = call noundef ptr @_ZNKSt10unique_ptrIN4cvc54main15CommandExecutorESt14default_deleteIS2_EE3getEv(ptr noundef nonnull align 8 dereferenceable(8) %3) #16
  ret ptr %4
}

; Function Attrs: inlinehint mustprogress nounwind uwtable
define linkonce_odr hidden noundef zeroext i1 @_ZStneIN4cvc54main15CommandExecutorESt14default_deleteIS2_EEbRKSt10unique_ptrIT_T0_EDn(ptr noundef nonnull align 8 dereferenceable(8) %0, ptr %1) #1 comdat {
  %3 = alloca ptr, align 8
  %4 = alloca ptr, align 8
  store ptr %0, ptr %3, align 8, !tbaa !3
  store ptr %1, ptr %4, align 8, !tbaa !8
  %5 = load ptr, ptr %3, align 8, !tbaa !3
  %6 = call noundef zeroext i1 @_ZNKSt10unique_ptrIN4cvc54main15CommandExecutorESt14default_deleteIS2_EEcvbEv(ptr noundef nonnull align 8 dereferenceable(8) %5) #16
  ret i1 %6
}

; Function Attrs: mustprogress uwtable
define hidden void @_ZN4cvc54main15signal_handlers16print_statisticsEv() #0 {
  %1 = call noundef zeroext i1 @_ZStneIN4cvc54main15CommandExecutorESt14default_deleteIS2_EEbRKSt10unique_ptrIT_T0_EDn(ptr noundef nonnull align 8 dereferenceable(8) @_ZN4cvc54main9pExecutorE, ptr null) #16
  br i1 %1, label %2, label %4

2:                                                ; preds = %0
  %3 = call noundef ptr @_ZNKSt10unique_ptrIN4cvc54main15CommandExecutorESt14default_deleteIS2_EEptEv(ptr noundef nonnull align 8 dereferenceable(8) @_ZN4cvc54main9pExecutorE) #16
  call void @_ZNK4cvc54main15CommandExecutor19printStatisticsSafeEi(ptr noundef nonnull align 8 dereferenceable(41) %3, i32 noundef 2)
  br label %4

4:                                                ; preds = %2, %0
  ret void
}

; Function Attrs: mustprogress uwtable
define linkonce_odr void @_ZN4cvc58internal10safe_printILm45EEEviRAT__Kc(i32 noundef %0, ptr noundef nonnull align 1 dereferenceable(45) %1) #0 comdat {
  %3 = alloca i32, align 4
  %4 = alloca ptr, align 8
  %5 = alloca i64, align 8
  store i32 %0, ptr %3, align 4, !tbaa !10
  store ptr %1, ptr %4, align 8, !tbaa !12
  call void @llvm.lifetime.start.p0(i64 8, ptr %5) #16
  store i64 44, ptr %5, align 8, !tbaa !14
  %6 = load i32, ptr %3, align 4, !tbaa !10
  %7 = load ptr, ptr %4, align 8, !tbaa !12
  %8 = getelementptr inbounds [45 x i8], ptr %7, i64 0, i64 0
  %9 = load i64, ptr %5, align 8, !tbaa !14
  %10 = call i64 @write(i32 noundef %6, ptr noundef %8, i64 noundef %9)
  %11 = load i64, ptr %5, align 8, !tbaa !14
  %12 = icmp ne i64 %10, %11
  br i1 %12, label %13, label %14

13:                                               ; preds = %2
  call void @abort() #17
  unreachable

14:                                               ; preds = %2
  call void @llvm.lifetime.end.p0(i64 8, ptr %5) #16
  ret void
}

; Function Attrs: mustprogress uwtable
define linkonce_odr void @_ZN4cvc58internal10safe_printILm73EEEviRAT__Kc(i32 noundef %0, ptr noundef nonnull align 1 dereferenceable(73) %1) #0 comdat {
  %3 = alloca i32, align 4
  %4 = alloca ptr, align 8
  %5 = alloca i64, align 8
  store i32 %0, ptr %3, align 4, !tbaa !10
  store ptr %1, ptr %4, align 8, !tbaa !12
  call void @llvm.lifetime.start.p0(i64 8, ptr %5) #16
  store i64 72, ptr %5, align 8, !tbaa !14
  %6 = load i32, ptr %3, align 4, !tbaa !10
  %7 = load ptr, ptr %4, align 8, !tbaa !12
  %8 = getelementptr inbounds [73 x i8], ptr %7, i64 0, i64 0
  %9 = load i64, ptr %5, align 8, !tbaa !14
  %10 = call i64 @write(i32 noundef %6, ptr noundef %8, i64 noundef %9)
  %11 = load i64, ptr %5, align 8, !tbaa !14
  %12 = icmp ne i64 %10, %11
  br i1 %12, label %13, label %14

13:                                               ; preds = %2
  call void @abort() #17
  unreachable

14:                                               ; preds = %2
  call void @llvm.lifetime.end.p0(i64 8, ptr %5) #16
  ret void
}

; Function Attrs: mustprogress uwtable
define linkonce_odr void @_ZN4cvc58internal10safe_printILm50EEEviRAT__Kc(i32 noundef %0, ptr noundef nonnull align 1 dereferenceable(50) %1) #0 comdat {
  %3 = alloca i32, align 4
  %4 = alloca ptr, align 8
  %5 = alloca i64, align 8
  store i32 %0, ptr %3, align 4, !tbaa !10
  store ptr %1, ptr %4, align 8, !tbaa !12
  call void @llvm.lifetime.start.p0(i64 8, ptr %5) #16
  store i64 49, ptr %5, align 8, !tbaa !14
  %6 = load i32, ptr %3, align 4, !tbaa !10
  %7 = load ptr, ptr %4, align 8, !tbaa !12
  %8 = getelementptr inbounds [50 x i8], ptr %7, i64 0, i64 0
  %9 = load i64, ptr %5, align 8, !tbaa !14
  %10 = call i64 @write(i32 noundef %6, ptr noundef %8, i64 noundef %9)
  %11 = load i64, ptr %5, align 8, !tbaa !14
  %12 = icmp ne i64 %10, %11
  br i1 %12, label %13, label %14

13:                                               ; preds = %2
  call void @abort() #17
  unreachable

14:                                               ; preds = %2
  call void @llvm.lifetime.end.p0(i64 8, ptr %5) #16
  ret void
}

; Function Attrs: mustprogress uwtable
define linkonce_odr void @_ZN4cvc58internal10safe_printILm2EEEviRAT__Kc(i32 noundef %0, ptr noundef nonnull align 1 dereferenceable(2) %1) #0 comdat {
  %3 = alloca i32, align 4
  %4 = alloca ptr, align 8
  %5 = alloca i64, align 8
  store i32 %0, ptr %3, align 4, !tbaa !10
  store ptr %1, ptr %4, align 8, !tbaa !12
  call void @llvm.lifetime.start.p0(i64 8, ptr %5) #16
  store i64 1, ptr %5, align 8, !tbaa !14
  %6 = load i32, ptr %3, align 4, !tbaa !10
  %7 = load ptr, ptr %4, align 8, !tbaa !12
  %8 = getelementptr inbounds [2 x i8], ptr %7, i64 0, i64 0
  %9 = load i64, ptr %5, align 8, !tbaa !14
  %10 = call i64 @write(i32 noundef %6, ptr noundef %8, i64 noundef %9)
  %11 = load i64, ptr %5, align 8, !tbaa !14
  %12 = icmp ne i64 %10, %11
  br i1 %12, label %13, label %14

13:                                               ; preds = %2
  call void @abort() #17
  unreachable

14:                                               ; preds = %2
  call void @llvm.lifetime.end.p0(i64 8, ptr %5) #16
  ret void
}

; Function Attrs: mustprogress uwtable
define linkonce_odr void @_ZN4cvc58internal10safe_printILm22EEEviRAT__Kc(i32 noundef %0, ptr noundef nonnull align 1 dereferenceable(22) %1) #0 comdat {
  %3 = alloca i32, align 4
  %4 = alloca ptr, align 8
  %5 = alloca i64, align 8
  store i32 %0, ptr %3, align 4, !tbaa !10
  store ptr %1, ptr %4, align 8, !tbaa !12
  call void @llvm.lifetime.start.p0(i64 8, ptr %5) #16
  store i64 21, ptr %5, align 8, !tbaa !14
  %6 = load i32, ptr %3, align 4, !tbaa !10
  %7 = load ptr, ptr %4, align 8, !tbaa !12
  %8 = getelementptr inbounds [22 x i8], ptr %7, i64 0, i64 0
  %9 = load i64, ptr %5, align 8, !tbaa !14
  %10 = call i64 @write(i32 noundef %6, ptr noundef %8, i64 noundef %9)
  %11 = load i64, ptr %5, align 8, !tbaa !14
  %12 = icmp ne i64 %10, %11
  br i1 %12, label %13, label %14

13:                                               ; preds = %2
  call void @abort() #17
  unreachable

14:                                               ; preds = %2
  call void @llvm.lifetime.end.p0(i64 8, ptr %5) #16
  ret void
}

; Function Attrs: mustprogress uwtable
define linkonce_odr void @_ZN4cvc58internal10safe_printILm27EEEviRAT__Kc(i32 noundef %0, ptr noundef nonnull align 1 dereferenceable(27) %1) #0 comdat {
  %3 = alloca i32, align 4
  %4 = alloca ptr, align 8
  %5 = alloca i64, align 8
  store i32 %0, ptr %3, align 4, !tbaa !10
  store ptr %1, ptr %4, align 8, !tbaa !12
  call void @llvm.lifetime.start.p0(i64 8, ptr %5) #16
  store i64 26, ptr %5, align 8, !tbaa !14
  %6 = load i32, ptr %3, align 4, !tbaa !10
  %7 = load ptr, ptr %4, align 8, !tbaa !12
  %8 = getelementptr inbounds [27 x i8], ptr %7, i64 0, i64 0
  %9 = load i64, ptr %5, align 8, !tbaa !14
  %10 = call i64 @write(i32 noundef %6, ptr noundef %8, i64 noundef %9)
  %11 = load i64, ptr %5, align 8, !tbaa !14
  %12 = icmp ne i64 %10, %11
  br i1 %12, label %13, label %14

13:                                               ; preds = %2
  call void @abort() #17
  unreachable

14:                                               ; preds = %2
  call void @llvm.lifetime.end.p0(i64 8, ptr %5) #16
  ret void
}

; Function Attrs: mustprogress uwtable
define hidden void @_ZN4cvc54main15signal_handlers12segv_handlerEiP9siginfo_tPv(i32 noundef %0, ptr noundef %1, ptr noundef %2) #0 {
  %4 = alloca i32, align 4
  %5 = alloca ptr, align 8
  %6 = alloca ptr, align 8
  %7 = alloca i64, align 8
  %8 = alloca i64, align 8
  store i32 %0, ptr %4, align 4, !tbaa !10
  store ptr %1, ptr %5, align 8, !tbaa !16
  store ptr %2, ptr %6, align 8, !tbaa !16
  call void @llvm.lifetime.start.p0(i64 8, ptr %7) #16
  %9 = load ptr, ptr @_ZN4cvc54main15signal_handlers9stackBaseE, align 8, !tbaa !16
  %10 = ptrtoint ptr %9 to i64
  %11 = load i64, ptr @_ZN4cvc54main15signal_handlers9stackSizeE, align 8, !tbaa !14
  %12 = sub i64 %10, %11
  store i64 %12, ptr %7, align 8, !tbaa !14
  call void @llvm.lifetime.start.p0(i64 8, ptr %8) #16
  %13 = load ptr, ptr %5, align 8, !tbaa !16
  %14 = getelementptr inbounds nuw %struct.siginfo_t, ptr %13, i32 0, i32 4
  %15 = getelementptr inbounds nuw %struct.anon.13, ptr %14, i32 0, i32 0
  %16 = load ptr, ptr %15, align 8, !tbaa !17
  %17 = ptrtoint ptr %16 to i64
  store i64 %17, ptr %8, align 8, !tbaa !14
  call void @_ZN4cvc58internal10safe_printILm27EEEviRAT__Kc(i32 noundef 2, ptr noundef nonnull align 1 dereferenceable(27) @.str.3)
  call void @_ZN4cvc58internal10safe_printILm22EEEviRAT__Kc(i32 noundef 2, ptr noundef nonnull align 1 dereferenceable(22) @.str.4)
  %18 = load ptr, ptr %5, align 8, !tbaa !16
  %19 = getelementptr inbounds nuw %struct.siginfo_t, ptr %18, i32 0, i32 4
  %20 = getelementptr inbounds nuw %struct.anon.13, ptr %19, i32 0, i32 0
  call void @_ZN4cvc58internal10safe_printIPvEEviRKT_(i32 noundef 2, ptr noundef nonnull align 8 dereferenceable(8) %20)
  call void @_ZN4cvc58internal10safe_printILm2EEEviRAT__Kc(i32 noundef 2, ptr noundef nonnull align 1 dereferenceable(2) @.str.5)
  %21 = load i64, ptr %8, align 8, !tbaa !14
  %22 = load i64, ptr %7, align 8, !tbaa !14
  %23 = icmp uge i64 %21, %22
  br i1 %23, label %24, label %30

24:                                               ; preds = %3
  %25 = load i64, ptr %8, align 8, !tbaa !14
  %26 = load i64, ptr %7, align 8, !tbaa !14
  %27 = add i64 %26, 10240
  %28 = icmp ule i64 %25, %27
  br i1 %28, label %29, label %30

29:                                               ; preds = %24
  call void @_ZN4cvc58internal10safe_printILm50EEEviRAT__Kc(i32 noundef 2, ptr noundef nonnull align 1 dereferenceable(50) @.str.6)
  call void @_ZN4cvc58internal10safe_printILm73EEEviRAT__Kc(i32 noundef 2, ptr noundef nonnull align 1 dereferenceable(73) @.str.7)
  br label %35

30:                                               ; preds = %24, %3
  %31 = load i64, ptr %8, align 8, !tbaa !14
  %32 = icmp ult i64 %31, 10240
  br i1 %32, label %33, label %34

33:                                               ; preds = %30
  call void @_ZN4cvc58internal10safe_printILm45EEEviRAT__Kc(i32 noundef 2, ptr noundef nonnull align 1 dereferenceable(45) @.str.8)
  br label %34

34:                                               ; preds = %33, %30
  br label %35

35:                                               ; preds = %34, %29
  call void @_ZN4cvc54main15signal_handlers16print_statisticsEv()
  %36 = load i32, ptr %4, align 4, !tbaa !10
  %37 = call ptr @signal(i32 noundef %36, ptr noundef null) #16
  %38 = load i32, ptr %4, align 4, !tbaa !10
  %39 = call i32 @raise(i32 noundef %38) #16
  call void @llvm.lifetime.end.p0(i64 8, ptr %8) #16
  call void @llvm.lifetime.end.p0(i64 8, ptr %7) #16
  ret void
}