; Function Attrs: mustprogress uwtable
define hidden void @_ZN4cvc54main15signal_handlers12segv_handlerEiP9siginfo_tPv(i32 noundef %0, ptr noundef %1, ptr readnone captures(none) %2) #0 {
  %4 = load ptr, ptr @_ZN4cvc54main15signal_handlers9stackBaseE, align 8, !tbaa !8
  %5 = ptrtoint ptr %4 to i64
  %6 = load i64, ptr @_ZN4cvc54main15signal_handlers9stackSizeE, align 8, !tbaa !9
  %7 = sub i64 %5, %6
  %8 = getelementptr inbounds nuw i8, ptr %1, i64 16
  %9 = load ptr, ptr %8, align 8, !tbaa !11
  %10 = ptrtoint ptr %9 to i64
  %11 = tail call i64 @write(i32 noundef 2, ptr noundef nonnull @.str.3, i64 noundef 26)
  %.not.i = icmp eq i64 %11, 26
  br i1 %.not.i, label %_ZN4cvc58internal10safe_printILm27EEEviRAT__Kc.exit, label %12

12:                                               ; preds = %3
  tail call void @abort() #20
  unreachable

_ZN4cvc58internal10safe_printILm27EEEviRAT__Kc.exit: ; preds = %3
  %13 = tail call i64 @write(i32 noundef 2, ptr noundef nonnull @.str.4, i64 noundef 21)
  %.not.i10 = icmp eq i64 %13, 21
  br i1 %.not.i10, label %_ZN4cvc58internal10safe_printILm22EEEviRAT__Kc.exit, label %14

14:                                               ; preds = %_ZN4cvc58internal10safe_printILm27EEEviRAT__Kc.exit
  tail call void @abort() #20
  unreachable

_ZN4cvc58internal10safe_printILm22EEEviRAT__Kc.exit: ; preds = %_ZN4cvc58internal10safe_printILm27EEEviRAT__Kc.exit
  tail call void @_ZN4cvc58internal10safe_printIPvEEviRKT_(i32 noundef 2, ptr noundef nonnull align 8 dereferenceable(8) %8)
  %15 = tail call i64 @write(i32 noundef 2, ptr noundef nonnull @.str.5, i64 noundef 1)
  %.not.i11 = icmp eq i64 %15, 1
  br i1 %.not.i11, label %_ZN4cvc58internal10safe_printILm2EEEviRAT__Kc.exit, label %16

16:                                               ; preds = %_ZN4cvc58internal10safe_printILm22EEEviRAT__Kc.exit
  tail call void @abort() #20
  unreachable

_ZN4cvc58internal10safe_printILm2EEEviRAT__Kc.exit: ; preds = %_ZN4cvc58internal10safe_printILm22EEEviRAT__Kc.exit
  %.not = icmp ugt i64 %7, %10
  %17 = add i64 %7, 10240
  %.not9 = icmp ult i64 %17, %10
  %or.cond = or i1 %.not, %.not9
  br i1 %or.cond, label %23, label %18

18:                                               ; preds = %_ZN4cvc58internal10safe_printILm2EEEviRAT__Kc.exit
  %19 = tail call i64 @write(i32 noundef 2, ptr noundef nonnull @.str.6, i64 noundef 49)
  %.not.i12 = icmp eq i64 %19, 49
  br i1 %.not.i12, label %_ZN4cvc58internal10safe_printILm50EEEviRAT__Kc.exit, label %20

20:                                               ; preds = %18
  tail call void @abort() #20
  unreachable

_ZN4cvc58internal10safe_printILm50EEEviRAT__Kc.exit: ; preds = %18
  %21 = tail call i64 @write(i32 noundef 2, ptr noundef nonnull @.str.7, i64 noundef 72)
  %.not.i13 = icmp eq i64 %21, 72
  br i1 %.not.i13, label %_ZN4cvc58internal10safe_printILm73EEEviRAT__Kc.exit, label %22

22:                                               ; preds = %_ZN4cvc58internal10safe_printILm50EEEviRAT__Kc.exit
  tail call void @abort() #20
  unreachable

23:                                               ; preds = %_ZN4cvc58internal10safe_printILm2EEEviRAT__Kc.exit
  %24 = icmp ult ptr %9, inttoptr (i64 10240 to ptr)
  br i1 %24, label %25, label %_ZN4cvc58internal10safe_printILm73EEEviRAT__Kc.exit

25:                                               ; preds = %23
  %26 = tail call i64 @write(i32 noundef 2, ptr noundef nonnull @.str.8, i64 noundef 44)
  %.not.i14 = icmp eq i64 %26, 44
  br i1 %.not.i14, label %_ZN4cvc58internal10safe_printILm73EEEviRAT__Kc.exit, label %27

27:                                               ; preds = %25
  tail call void @abort() #20
  unreachable

_ZN4cvc58internal10safe_printILm73EEEviRAT__Kc.exit: ; preds = %25, %_ZN4cvc58internal10safe_printILm50EEEviRAT__Kc.exit, %23
  %28 = load ptr, ptr @_ZN4cvc54main9pExecutorE, align 8, !tbaa !3
  %.not.i15 = icmp eq ptr %28, null
  br i1 %.not.i15, label %_ZN4cvc54main15signal_handlers16print_statisticsEv.exit, label %29

29:                                               ; preds = %_ZN4cvc58internal10safe_printILm73EEEviRAT__Kc.exit
  tail call void @_ZNK4cvc54main15CommandExecutor19printStatisticsSafeEi(ptr noundef nonnull align 8 dereferenceable(41) %28, i32 noundef 2)
  br label %_ZN4cvc54main15signal_handlers16print_statisticsEv.exit

_ZN4cvc54main15signal_handlers16print_statisticsEv.exit: ; preds = %_ZN4cvc58internal10safe_printILm73EEEviRAT__Kc.exit, %29
  %30 = tail call ptr @signal(i32 noundef %0, ptr noundef null) #21
  %31 = tail call i32 @raise(i32 noundef %0) #21
  ret void
}